target datalayout = "e-m:e-p270:32:32-p271:32:32-p272:64:64-i64:64-i128:128-f80:128-n8:16:32:64-S128"
target triple = "x86_64-pc-linux-gnu"

; Function Attrs: mustprogress nounwind uwtable
define signext i8 @uprv_pathIsAbsolute_77(ptr noundef %0) #0 {
  %2 = alloca i8, align 1
  %3 = alloca ptr, align 8
  store ptr %0, ptr %3, align 8, !tbaa !17
  %4 = load ptr, ptr %3, align 8, !tbaa !17
  %5 = icmp ne ptr %4, null
  br i1 %5, label %6, label %10

6:                                                ; preds = %1
  %7 = load ptr, ptr %3, align 8, !tbaa !17
  %8 = load i8, ptr %7, align 1, !tbaa !28
  %9 = icmp ne i8 %8, 0
  br i1 %9, label %11, label %10

10:                                               ; preds = %6, %1
  store i8 0, ptr %2, align 1
  br label %18

11:                                               ; preds = %6
  %12 = load ptr, ptr %3, align 8, !tbaa !17
  %13 = load i8, ptr %12, align 1, !tbaa !28
  %14 = sext i8 %13 to i32
  %15 = icmp eq i32 %14, 47
  br i1 %15, label %16, label %17

16:                                               ; preds = %11
  store i8 1, ptr %2, align 1
  br label %18

17:                                               ; preds = %11
  store i8 0, ptr %2, align 1
  br label %18

18:                                               ; preds = %17, %16, %10
  %19 = load i8, ptr %2, align 1
  ret i8 %19
}