; Function Attrs: mustprogress nofree norecurse nosync nounwind willreturn memory(argmem: read) uwtable
define signext range(i8 0, 2) i8 @uprv_pathIsAbsolute_77(ptr noundef readonly %0) local_unnamed_addr #26 {
  %.not = icmp eq ptr %0, null
  br i1 %.not, label %4, label %2

2:                                                ; preds = %1
  %3 = load i8, ptr %0, align 1, !tbaa !21
  %cond = icmp eq i8 %3, 47
  %spec.select = zext i1 %cond to i8
  br label %4

4:                                                ; preds = %2, %1
  %.0 = phi i8 [ 0, %1 ], [ %spec.select, %2 ]
  ret i8 %.0
}